target datalayout = "e-m:e-p270:32:32-p271:32:32-p272:64:64-i64:64-i128:128-f80:128-n8:16:32:64-S128"
target triple = "x86_64-pc-linux-gnu"

%struct.AVCodecContext = type { ptr, i32, i32, ptr, i32, i32, ptr, ptr, ptr, i64, i32, i32, ptr, i32, %struct.AVRational, %struct.AVRational, %struct.AVRational, i32, i32, i32, i32, i32, %struct.AVRational, i32, i32, i32, i32, i32, i32, i32, i32, i32, i32, i32, ptr, ptr, i32, float, float, float, float, float, float, float, float, float, i32, i32, i32, i32, i32, i32, i32, i32, i32, i32, i32, i32, ptr, ptr, ptr, i32, i32, i32, i32, i32, i32, i32, i32, i32, i32, %struct.AVChannelLayout, i32, i32, i32, i32, i32, i32, i32, i32, ptr, i32, i32, i32, float, float, i32, i32, i32, i32, i32, ptr, i64, i64, float, float, i32, i32, ptr, ptr, i32, i32, i32, i32, i32, ptr, ptr, ptr, ptr, i32, i32, [8 x i64], i32, i32, i32, i32, i32, i32, i32, ptr, ptr, i32, i32, i32, i32, i32, i32, i32, i32, i32, i32, ptr, ptr, i32, i32, ptr, ptr, ptr, ptr, i32, i32, i64, i32, i32, i64, ptr, i64, ptr, i32, ptr, i32 }
%struct.AVRational = type { i32, i32 }
%struct.AVChannelLayout = type { i32, i32, %union.anon.1, ptr }
%union.anon.1 = type { i64 }
%struct.ProresContext = type { ptr, [8 x i8], [4 x [2048 x i16]], [256 x i16], [16 x [64 x i16]], [16 x [64 x i16]], [64 x i16], [64 x i16], ptr, ptr, ptr, ptr, %struct.FDCTDSPContext, ptr, i32, i32, i32, i32, i32, i32, i32, i32, i32, i32, i32, i32, i32, i32, ptr, i32, i32, i32, ptr, ptr, ptr }
%struct.FDCTDSPContext = type { ptr, ptr }
%struct.ProresThreadData = type { [4 x [2048 x i16]], [256 x i16], [64 x i16], [64 x i16], ptr, [8 x i8] }

; Function Attrs: cold nounwind optsize uwtable
define internal i32 @encode_close(ptr noundef %0) #0 {
  %2 = alloca ptr, align 8
  %3 = alloca ptr, align 8
  %4 = alloca i32, align 4
  store ptr %0, ptr %2, align 8, !tbaa !4
  call void @llvm.lifetime.start.p0(i64 8, ptr %3) #11
  %5 = load ptr, ptr %2, align 8, !tbaa !4
  %6 = getelementptr inbounds nuw %struct.AVCodecContext, ptr %5, i32 0, i32 6
  %7 = load ptr, ptr %6, align 8, !tbaa !9
  store ptr %7, ptr %3, align 8, !tbaa !29
  call void @llvm.lifetime.start.p0(i64 4, ptr %4) #11
  %8 = load ptr, ptr %3, align 8, !tbaa !29
  %9 = getelementptr inbounds nuw %struct.ProresContext, ptr %8, i32 0, i32 34
  %10 = load ptr, ptr %9, align 8, !tbaa !83
  %11 = icmp ne ptr %10, null
  br i1 %11, label %12, label %31

12:                                               ; preds = %1
  store i32 0, ptr %4, align 4, !tbaa !32
  br label %13

13:                                               ; preds = %27, %12
  %14 = load i32, ptr %4, align 4, !tbaa !32
  %15 = load ptr, ptr %2, align 8, !tbaa !4
  %16 = getelementptr inbounds nuw %struct.AVCodecContext, ptr %15, i32 0, i32 116
  %17 = load i32, ptr %16, align 8, !tbaa !82
  %18 = icmp slt i32 %14, %17
  br i1 %18, label %19, label %30

19:                                               ; preds = %13
  %20 = load ptr, ptr %3, align 8, !tbaa !29
  %21 = getelementptr inbounds nuw %struct.ProresContext, ptr %20, i32 0, i32 34
  %22 = load ptr, ptr %21, align 8, !tbaa !83
  %23 = load i32, ptr %4, align 4, !tbaa !32
  %24 = sext i32 %23 to i64
  %25 = getelementptr inbounds %struct.ProresThreadData, ptr %22, i64 %24
  %26 = getelementptr inbounds nuw %struct.ProresThreadData, ptr %25, i32 0, i32 4
  call void @av_freep(ptr noundef %26)
  br label %27

27:                                               ; preds = %19
  %28 = load i32, ptr %4, align 4, !tbaa !32
  %29 = add nsw i32 %28, 1
  store i32 %29, ptr %4, align 4, !tbaa !32
  br label %13, !llvm.loop !123

30:                                               ; preds = %13
  br label %31

31:                                               ; preds = %30, %1
  %32 = load ptr, ptr %3, align 8, !tbaa !29
  %33 = getelementptr inbounds nuw %struct.ProresContext, ptr %32, i32 0, i32 34
  call void @av_freep(ptr noundef %33)
  %34 = load ptr, ptr %3, align 8, !tbaa !29
  %35 = getelementptr inbounds nuw %struct.ProresContext, ptr %34, i32 0, i32 33
  call void @av_freep(ptr noundef %35)
  call void @llvm.lifetime.end.p0(i64 4, ptr %4) #11
  call void @llvm.lifetime.end.p0(i64 8, ptr %3) #11
  ret i32 0
}