; Function Attrs: cold nounwind optsize uwtable
define internal noundef i32 @encode_close(ptr noundef readonly captures(none) %0) #0 {
  %2 = getelementptr inbounds nuw i8, ptr %0, i64 32
  %3 = load ptr, ptr %2, align 8, !tbaa !4
  %4 = getelementptr inbounds nuw i8, ptr %3, i64 21416
  %5 = load ptr, ptr %4, align 8, !tbaa !77
  %.not = icmp eq ptr %5, null
  br i1 %.not, label %.loopexit, label %.preheader

.preheader:                                       ; preds = %1
  %6 = getelementptr inbounds nuw i8, ptr %0, i64 656
  %7 = load i32, ptr %6, align 8, !tbaa !76
  %8 = icmp sgt i32 %7, 0
  br i1 %8, label %.lr.ph, label %.loopexit

.lr.ph:                                           ; preds = %.preheader, %.lr.ph
  %indvars.iv = phi i64 [ %indvars.iv.next, %.lr.ph ], [ 0, %.preheader ]
  %9 = load ptr, ptr %4, align 8, !tbaa !77
  %10 = getelementptr inbounds nuw %struct.ProresThreadData, ptr %9, i64 %indvars.iv, i32 4
  tail call void @av_freep(ptr noundef nonnull %10) #11
  %indvars.iv.next = add nuw nsw i64 %indvars.iv, 1
  %11 = load i32, ptr %6, align 8, !tbaa !76
  %12 = sext i32 %11 to i64
  %13 = icmp slt i64 %indvars.iv.next, %12
  br i1 %13, label %.lr.ph, label %.loopexit, !llvm.loop !133

.loopexit:                                        ; preds = %.lr.ph, %.preheader, %1
  tail call void @av_freep(ptr noundef nonnull %4) #11
  %14 = getelementptr inbounds nuw i8, ptr %3, i64 21408
  tail call void @av_freep(ptr noundef nonnull %14) #11
  ret i32 0
}